target datalayout = "e-m:e-p270:32:32-p271:32:32-p272:64:64-i64:64-i128:128-f80:128-n8:16:32:64-S128"
target triple = "x86_64-unknown-linux-gnu"

%"class.grpc_core::RefCountedPtr.157" = type { ptr }
%class.anon.306 = type { %"class.grpc_core::RefCountedPtr.157" }

; Function Attrs: mustprogress nounwind uwtable
define linkonce_odr noundef ptr @_ZNK9grpc_core13RefCountedPtrINS_9XdsClient24ResourceWatcherInterfaceEEptEv(ptr noundef nonnull align 8 dereferenceable(8) %this) #5 comdat align 2 {
entry:
  %this.addr = alloca ptr, align 8
  store ptr %this, ptr %this.addr, align 8
  %this1 = load ptr, ptr %this.addr, align 8
  %value_ = getelementptr inbounds %"class.grpc_core::RefCountedPtr.157", ptr %this1, i32 0, i32 0
  %0 = load ptr, ptr %value_, align 8
  ret ptr %0
}

; Function Attrs: mustprogress uwtable
define internal void @"_ZZN9grpc_core9XdsClient13WatchResourceEPKNS_15XdsResourceTypeESt17basic_string_viewIcSt11char_traitsIcEENS_13RefCountedPtrINS0_24ResourceWatcherInterfaceEEEENK3$_2clEv"(ptr noundef nonnull align 8 dereferenceable(8) %this) #4 align 2 {
entry:
  %this.addr = alloca ptr, align 8
  store ptr %this, ptr %this.addr, align 8
  %this1 = load ptr, ptr %this.addr, align 8
  %0 = getelementptr inbounds %class.anon.306, ptr %this1, i32 0, i32 0
  %call = call noundef ptr @_ZNK9grpc_core13RefCountedPtrINS_9XdsClient24ResourceWatcherInterfaceEEptEv(ptr noundef nonnull align 8 dereferenceable(8) %0)
  %vtable = load ptr, ptr %call, align 8
  %vfn = getelementptr inbounds ptr, ptr %vtable, i64 4
  %1 = load ptr, ptr %vfn, align 8
  call void %1(ptr noundef nonnull align 8 dereferenceable(16) %call)
  ret void
}

; Function Attrs: mustprogress nounwind uwtable
define linkonce_odr noundef ptr @_ZNKSt9_Any_data9_M_accessEv(ptr noundef nonnull align 8 dereferenceable(16) %this) #5 comdat align 2 {
entry:
  %this.addr = alloca ptr, align 8
  store ptr %this, ptr %this.addr, align 8
  %this1 = load ptr, ptr %this.addr, align 8
  %arrayidx = getelementptr inbounds [16 x i8], ptr %this1, i64 0, i64 0
  ret ptr %arrayidx
}

; Function Attrs: mustprogress uwtable
define internal void @"_ZSt13__invoke_implIvRZN9grpc_core9XdsClient13WatchResourceEPKNS0_15XdsResourceTypeESt17basic_string_viewIcSt11char_traitsIcEENS0_13RefCountedPtrINS1_24ResourceWatcherInterfaceEEEE3$_2JEET_St14__invoke_otherOT0_DpOT1_"(ptr noundef nonnull align 8 dereferenceable(8) %__f) #4 {
entry:
  %__f.addr = alloca ptr, align 8
  store ptr %__f, ptr %__f.addr, align 8
  %0 = load ptr, ptr %__f.addr, align 8
  call void @"_ZZN9grpc_core9XdsClient13WatchResourceEPKNS_15XdsResourceTypeESt17basic_string_viewIcSt11char_traitsIcEENS_13RefCountedPtrINS0_24ResourceWatcherInterfaceEEEENK3$_2clEv"(ptr noundef nonnull align 8 dereferenceable(8) %0)
  ret void
}

; Function Attrs: mustprogress nounwind uwtable
define internal noundef nonnull align 8 dereferenceable(8) ptr @"_ZNKSt9_Any_data9_M_accessIPZN9grpc_core9XdsClient13WatchResourceEPKNS1_15XdsResourceTypeESt17basic_string_viewIcSt11char_traitsIcEENS1_13RefCountedPtrINS2_24ResourceWatcherInterfaceEEEE3$_2EERKT_v"(ptr noundef nonnull align 8 dereferenceable(16) %this) #5 align 2 {
entry:
  %this.addr = alloca ptr, align 8
  store ptr %this, ptr %this.addr, align 8
  %this1 = load ptr, ptr %this.addr, align 8
  %call = call noundef ptr @_ZNKSt9_Any_data9_M_accessEv(ptr noundef nonnull align 8 dereferenceable(16) %this1) #3
  ret ptr %call
}

; Function Attrs: mustprogress uwtable
define internal void @"_ZSt10__invoke_rIvRZN9grpc_core9XdsClient13WatchResourceEPKNS0_15XdsResourceTypeESt17basic_string_viewIcSt11char_traitsIcEENS0_13RefCountedPtrINS1_24ResourceWatcherInterfaceEEEE3$_2JEENSt9enable_ifIX16is_invocable_r_vIT_T0_DpT1_EESF_E4typeEOSG_DpOSH_"(ptr noundef nonnull align 8 dereferenceable(8) %__fn) #4 {
entry:
  %__fn.addr = alloca ptr, align 8
  store ptr %__fn, ptr %__fn.addr, align 8
  %0 = load ptr, ptr %__fn.addr, align 8
  call void @"_ZSt13__invoke_implIvRZN9grpc_core9XdsClient13WatchResourceEPKNS0_15XdsResourceTypeESt17basic_string_viewIcSt11char_traitsIcEENS0_13RefCountedPtrINS1_24ResourceWatcherInterfaceEEEE3$_2JEET_St14__invoke_otherOT0_DpOT1_"(ptr noundef nonnull align 8 dereferenceable(8) %0)
  ret void
}

; Function Attrs: mustprogress nounwind uwtable
define internal noundef ptr @"_ZNSt14_Function_base13_Base_managerIZN9grpc_core9XdsClient13WatchResourceEPKNS1_15XdsResourceTypeESt17basic_string_viewIcSt11char_traitsIcEENS1_13RefCountedPtrINS2_24ResourceWatcherInterfaceEEEE3$_2E14_M_get_pointerERKSt9_Any_data"(ptr noundef nonnull align 8 dereferenceable(16) %__source) #5 align 2 {
entry:
  %__source.addr = alloca ptr, align 8
  store ptr %__source, ptr %__source.addr, align 8
  %0 = load ptr, ptr %__source.addr, align 8
  %call = call noundef nonnull align 8 dereferenceable(8) ptr @"_ZNKSt9_Any_data9_M_accessIPZN9grpc_core9XdsClient13WatchResourceEPKNS1_15XdsResourceTypeESt17basic_string_viewIcSt11char_traitsIcEENS1_13RefCountedPtrINS2_24ResourceWatcherInterfaceEEEE3$_2EERKT_v"(ptr noundef nonnull align 8 dereferenceable(16) %0) #3
  %1 = load ptr, ptr %call, align 8
  ret ptr %1
}

; Function Attrs: mustprogress uwtable
define internal void @"_ZNSt17_Function_handlerIFvvEZN9grpc_core9XdsClient13WatchResourceEPKNS1_15XdsResourceTypeESt17basic_string_viewIcSt11char_traitsIcEENS1_13RefCountedPtrINS2_24ResourceWatcherInterfaceEEEE3$_2E9_M_invokeERKSt9_Any_data"(ptr noundef nonnull align 8 dereferenceable(16) %__functor) #4 align 2 {
entry:
  %__functor.addr = alloca ptr, align 8
  store ptr %__functor, ptr %__functor.addr, align 8
  %0 = load ptr, ptr %__functor.addr, align 8
  %call = call noundef ptr @"_ZNSt14_Function_base13_Base_managerIZN9grpc_core9XdsClient13WatchResourceEPKNS1_15XdsResourceTypeESt17basic_string_viewIcSt11char_traitsIcEENS1_13RefCountedPtrINS2_24ResourceWatcherInterfaceEEEE3$_2E14_M_get_pointerERKSt9_Any_data"(ptr noundef nonnull align 8 dereferenceable(16) %0) #3
  call void @"_ZSt10__invoke_rIvRZN9grpc_core9XdsClient13WatchResourceEPKNS0_15XdsResourceTypeESt17basic_string_viewIcSt11char_traitsIcEENS0_13RefCountedPtrINS1_24ResourceWatcherInterfaceEEEE3$_2JEENSt9enable_ifIX16is_invocable_r_vIT_T0_DpT1_EESF_E4typeEOSG_DpOSH_"(ptr noundef nonnull align 8 dereferenceable(8) %call)
  ret void
}