; Function Attrs: mustprogress uwtable
define internal void @"_ZNSt17_Function_handlerIFvvEZN9grpc_core9XdsClient13WatchResourceEPKNS1_15XdsResourceTypeESt17basic_string_viewIcSt11char_traitsIcEENS1_13RefCountedPtrINS2_24ResourceWatcherInterfaceEEEE3$_2E9_M_invokeERKSt9_Any_data"(ptr nocapture noundef nonnull readonly align 8 dereferenceable(16) %__functor) #3 align 2 {
entry:
  %__functor.val = load ptr, ptr %__functor, align 8
  %call.val = load ptr, ptr %__functor.val, align 8
  %vtable.i.i.i = load ptr, ptr %call.val, align 8
  %vfn.i.i.i = getelementptr inbounds i8, ptr %vtable.i.i.i, i64 32
  %0 = load ptr, ptr %vfn.i.i.i, align 8
  tail call void %0(ptr noundef nonnull align 8 dereferenceable(16) %call.val)
  ret void
}